target datalayout = "e-m:e-p270:32:32-p271:32:32-p272:64:64-i64:64-i128:128-f80:128-n8:16:32:64-S128"
target triple = "x86_64-pc-linux-gnu"

%struct.lv_grad_dsc_t = type { [2 x %struct.lv_gradient_stop_t], i8, i8 }
%struct.lv_gradient_stop_t = type { %struct.lv_color_t, i8, i8 }
%struct.lv_color_t = type { i8, i8, i8 }
%struct._lv_grad_t = type { ptr, ptr, i32 }

; Function Attrs: nounwind uwtable
define internal ptr @allocate_item(ptr noundef %0, i32 noundef %1, i32 noundef %2) #0 {
  %4 = alloca ptr, align 8
  %5 = alloca ptr, align 8
  %6 = alloca i32, align 4
  %7 = alloca i32, align 4
  %8 = alloca i32, align 4
  %9 = alloca i64, align 8
  %10 = alloca ptr, align 8
  %11 = alloca i32, align 4
  %12 = alloca ptr, align 8
  store ptr %0, ptr %5, align 8, !tbaa !3
  store i32 %1, ptr %6, align 4, !tbaa !7
  store i32 %2, ptr %7, align 4, !tbaa !7
  call void @llvm.lifetime.start.p0(i64 4, ptr %8) #4
  %13 = load ptr, ptr %5, align 8, !tbaa !3
  %14 = getelementptr inbounds nuw %struct.lv_grad_dsc_t, ptr %13, i32 0, i32 2
  %15 = load i8, ptr %14, align 1
  %16 = and i8 %15, 7
  %17 = zext i8 %16 to i32
  switch i32 %17, label %22 [
    i32 2, label %18
    i32 3, label %18
    i32 4, label %18
    i32 5, label %18
    i32 1, label %20
  ]

18:                                               ; preds = %3, %3, %3, %3
  %19 = load i32, ptr %6, align 4, !tbaa !7
  store i32 %19, ptr %8, align 4, !tbaa !7
  br label %23

20:                                               ; preds = %3
  %21 = load i32, ptr %7, align 4, !tbaa !7
  store i32 %21, ptr %8, align 4, !tbaa !7
  br label %23

22:                                               ; preds = %3
  store i32 64, ptr %8, align 4, !tbaa !7
  br label %23

23:                                               ; preds = %22, %20, %18
  call void @llvm.lifetime.start.p0(i64 8, ptr %9) #4
  %24 = load i32, ptr %8, align 4, !tbaa !7
  %25 = sext i32 %24 to i64
  %26 = mul i64 %25, 3
  %27 = add i64 %26, 7
  %28 = and i64 %27, -8
  %29 = add i64 24, %28
  %30 = load i32, ptr %8, align 4, !tbaa !7
  %31 = sext i32 %30 to i64
  %32 = mul i64 %31, 1
  %33 = add i64 %32, 7
  %34 = and i64 %33, -8
  %35 = add i64 %29, %34
  store i64 %35, ptr %9, align 8, !tbaa !15
  call void @llvm.lifetime.start.p0(i64 8, ptr %10) #4
  %36 = load i64, ptr %9, align 8, !tbaa !15
  %37 = call ptr @lv_malloc(i64 noundef %36)
  store ptr %37, ptr %10, align 8, !tbaa !3
  br label %38

38:                                               ; preds = %23
  %39 = load ptr, ptr %10, align 8, !tbaa !3
  %40 = icmp ne ptr %39, null
  br i1 %40, label %47, label %41

41:                                               ; preds = %38
  br label %42

42:                                               ; preds = %41
  br label %43

43:                                               ; preds = %42
  br label %44

44:                                               ; preds = %43
  br label %45

45:                                               ; preds = %46, %44
  br label %46

46:                                               ; preds = %45
  br label %45

47:                                               ; preds = %38
  br label %48

48:                                               ; preds = %47
  br label %49

49:                                               ; preds = %48
  %50 = load ptr, ptr %10, align 8, !tbaa !3
  %51 = icmp eq ptr %50, null
  br i1 %51, label %52, label %53

52:                                               ; preds = %49
  store ptr null, ptr %4, align 8
  store i32 1, ptr %11, align 4
  br label %73

53:                                               ; preds = %49
  call void @llvm.lifetime.start.p0(i64 8, ptr %12) #4
  %54 = load ptr, ptr %10, align 8, !tbaa !3
  store ptr %54, ptr %12, align 8, !tbaa !3
  %55 = load ptr, ptr %12, align 8, !tbaa !3
  %56 = getelementptr inbounds nuw i8, ptr %55, i64 24
  %57 = load ptr, ptr %10, align 8, !tbaa !3
  %58 = getelementptr inbounds nuw %struct._lv_grad_t, ptr %57, i32 0, i32 0
  store ptr %56, ptr %58, align 8, !tbaa !11
  %59 = load ptr, ptr %12, align 8, !tbaa !3
  %60 = getelementptr inbounds nuw i8, ptr %59, i64 24
  %61 = load i32, ptr %8, align 4, !tbaa !7
  %62 = sext i32 %61 to i64
  %63 = mul i64 %62, 3
  %64 = add i64 %63, 7
  %65 = and i64 %64, -8
  %66 = getelementptr inbounds nuw i8, ptr %60, i64 %65
  %67 = load ptr, ptr %10, align 8, !tbaa !3
  %68 = getelementptr inbounds nuw %struct._lv_grad_t, ptr %67, i32 0, i32 1
  store ptr %66, ptr %68, align 8, !tbaa !12
  %69 = load i32, ptr %8, align 4, !tbaa !7
  %70 = load ptr, ptr %10, align 8, !tbaa !3
  %71 = getelementptr inbounds nuw %struct._lv_grad_t, ptr %70, i32 0, i32 2
  store i32 %69, ptr %71, align 8, !tbaa !9
  %72 = load ptr, ptr %10, align 8, !tbaa !3
  store ptr %72, ptr %4, align 8
  store i32 1, ptr %11, align 4
  call void @llvm.lifetime.end.p0(i64 8, ptr %12) #4
  br label %73

73:                                               ; preds = %53, %52
  call void @llvm.lifetime.end.p0(i64 8, ptr %10) #4
  call void @llvm.lifetime.end.p0(i64 8, ptr %9) #4
  call void @llvm.lifetime.end.p0(i64 4, ptr %8) #4
  %74 = load ptr, ptr %4, align 8
  ret ptr %74
}

; Function Attrs: nounwind uwtable
define ptr @lv_gradient_get(ptr noundef %0, i32 noundef %1, i32 noundef %2) #0 {
  %4 = alloca ptr, align 8
  %5 = alloca ptr, align 8
  %6 = alloca i32, align 4
  %7 = alloca i32, align 4
  %8 = alloca ptr, align 8
  %9 = alloca i32, align 4
  %10 = alloca i32, align 4
  store ptr %0, ptr %5, align 8, !tbaa !3
  store i32 %1, ptr %6, align 4, !tbaa !7
  store i32 %2, ptr %7, align 4, !tbaa !7
  %11 = load ptr, ptr %5, align 8, !tbaa !3
  %12 = getelementptr inbounds nuw %struct.lv_grad_dsc_t, ptr %11, i32 0, i32 2
  %13 = load i8, ptr %12, align 1
  %14 = and i8 %13, 7
  %15 = zext i8 %14 to i32
  %16 = icmp eq i32 %15, 0
  br i1 %16, label %17, label %18

17:                                               ; preds = %3
  store ptr null, ptr %4, align 8
  br label %61

18:                                               ; preds = %3
  call void @llvm.lifetime.start.p0(i64 8, ptr %8) #4
  %19 = load ptr, ptr %5, align 8, !tbaa !3
  %20 = load i32, ptr %6, align 4, !tbaa !7
  %21 = load i32, ptr %7, align 4, !tbaa !7
  %22 = call ptr @allocate_item(ptr noundef %19, i32 noundef %20, i32 noundef %21)
  store ptr %22, ptr %8, align 8, !tbaa !3
  %23 = load ptr, ptr %8, align 8, !tbaa !3
  %24 = icmp eq ptr %23, null
  br i1 %24, label %25, label %30

25:                                               ; preds = %18
  br label %26

26:                                               ; preds = %25
  br label %27

27:                                               ; preds = %26
  br label %28

28:                                               ; preds = %27
  %29 = load ptr, ptr %8, align 8, !tbaa !3
  store ptr %29, ptr %4, align 8
  store i32 1, ptr %9, align 4
  br label %60

30:                                               ; preds = %18
  call void @llvm.lifetime.start.p0(i64 4, ptr %10) #4
  store i32 0, ptr %10, align 4, !tbaa !7
  br label %31

31:                                               ; preds = %55, %30
  %32 = load i32, ptr %10, align 4, !tbaa !7
  %33 = load ptr, ptr %8, align 8, !tbaa !3
  %34 = getelementptr inbounds nuw %struct._lv_grad_t, ptr %33, i32 0, i32 2
  %35 = load i32, ptr %34, align 8, !tbaa !9
  %36 = icmp ult i32 %32, %35
  br i1 %36, label %37, label %58

37:                                               ; preds = %31
  %38 = load ptr, ptr %5, align 8, !tbaa !3
  %39 = load ptr, ptr %8, align 8, !tbaa !3
  %40 = getelementptr inbounds nuw %struct._lv_grad_t, ptr %39, i32 0, i32 2
  %41 = load i32, ptr %40, align 8, !tbaa !9
  %42 = load i32, ptr %10, align 4, !tbaa !7
  %43 = load ptr, ptr %8, align 8, !tbaa !3
  %44 = getelementptr inbounds nuw %struct._lv_grad_t, ptr %43, i32 0, i32 0
  %45 = load ptr, ptr %44, align 8, !tbaa !11
  %46 = load i32, ptr %10, align 4, !tbaa !7
  %47 = zext i32 %46 to i64
  %48 = getelementptr inbounds nuw %struct.lv_color_t, ptr %45, i64 %47
  %49 = load ptr, ptr %8, align 8, !tbaa !3
  %50 = getelementptr inbounds nuw %struct._lv_grad_t, ptr %49, i32 0, i32 1
  %51 = load ptr, ptr %50, align 8, !tbaa !12
  %52 = load i32, ptr %10, align 4, !tbaa !7
  %53 = zext i32 %52 to i64
  %54 = getelementptr inbounds nuw i8, ptr %51, i64 %53
  call void @lv_gradient_color_calculate(ptr noundef %38, i32 noundef %41, i32 noundef %42, ptr noundef %48, ptr noundef %54)
  br label %55

55:                                               ; preds = %37
  %56 = load i32, ptr %10, align 4, !tbaa !7
  %57 = add i32 %56, 1
  store i32 %57, ptr %10, align 4, !tbaa !7
  br label %31, !llvm.loop !13

58:                                               ; preds = %31
  %59 = load ptr, ptr %8, align 8, !tbaa !3
  store ptr %59, ptr %4, align 8
  store i32 1, ptr %9, align 4
  call void @llvm.lifetime.end.p0(i64 4, ptr %10) #4
  br label %60

60:                                               ; preds = %58, %28
  call void @llvm.lifetime.end.p0(i64 8, ptr %8) #4
  br label %61

61:                                               ; preds = %60, %17
  %62 = load ptr, ptr %4, align 8
  ret ptr %62
}